TN:
SF:/workspace/include/DataSink.h
FNL:0,8,8
FNA:0,0,_ZN9CDataSinkD0Ev
FNA:0,18,_ZN9CDataSinkD2Ev
FNF:1
FNH:1
DA:8,18
LF:1
LH:1
end_of_record
TN:
SF:/workspace/include/DataSource.h
FNL:0,8,8
FNA:0,0,_ZN11CDataSourceD0Ev
FNA:0,77,_ZN11CDataSourceD2Ev
FNF:1
FNH:1
DA:8,77
LF:1
LH:1
end_of_record
TN:
SF:/workspace/src/SVGWriter.cpp
FNL:0,35,37
FNA:0,0,_ZN10CSVGWriterC2ESt10shared_ptrI9CDataSinkEii
FNL:1,39,41
FNA:1,0,_ZN10CSVGWriterD2Ev
FNL:2,43,45
FNA:2,0,_ZN10CSVGWriter6CircleERK9SSVGPointdRKSt6vectorISt4pairINSt7__cxx1112basic_stringIcSt11char_traitsIcESaIcEEESA_ESaISB_EE
FNL:3,47,49
FNA:3,0,_ZN10CSVGWriter8RectangeERK9SSVGPointRK8SSVGSizeRKSt6vectorISt4pairINSt7__cxx1112basic_stringIcSt11char_traitsIcESaIcEEESD_ESaISE_EE
FNL:4,51,53
FNA:4,0,_ZN10CSVGWriter4LineERK9SSVGPointS2_RKSt6vectorISt4pairINSt7__cxx1112basic_stringIcSt11char_traitsIcESaIcEEESA_ESaISB_EE
FNL:5,55,57
FNA:5,0,_ZN10CSVGWriter10SimplePathESt6vectorI9SSVGPointSaIS1_EERKS0_ISt4pairINSt7__cxx1112basic_stringIcSt11char_traitsIcESaIcEEESA_ESaISB_EE
FNL:6,59,61
FNA:6,0,_ZN10CSVGWriter10GroupBeginERKSt6vectorISt4pairINSt7__cxx1112basic_stringIcSt11char_traitsIcESaIcEEES7_ESaIS8_EE
FNL:7,63,65
FNA:7,0,_ZN10CSVGWriter8GroupEndEv
FNL:8,9,11
FNA:8,0,_ZN10CSVGWriter15SImplementation6CircleERK9SSVGPointdRKSt6vectorISt4pairINSt7__cxx1112basic_stringIcSt11char_traitsIcESaIcEEESB_ESaISC_EE
FNF:9
FNH:0
DA:9,0
DA:35,0
DA:36,0
DA:37,0
DA:39,0
DA:41,0
DA:43,0
DA:44,0
DA:47,0
DA:51,0
DA:55,0
DA:59,0
DA:63,0
LF:13
LH:0
end_of_record
TN:
SF:/workspace/src/StringDataSink.cpp
FNL:0,12,15
FNA:0,12,_ZN15CStringDataSink5WriteERKSt6vectorIcSaIcEE
FNL:1,3,5
FNA:1,36,_ZNK15CStringDataSink6StringB5cxx11Ev
FNL:2,7,10
FNA:2,30,_ZN15CStringDataSink3PutERKc
FNF:3
FNH:3
DA:3,36
DA:4,36
DA:7,30
DA:8,60
DA:9,30
DA:12,12
DA:13,24
DA:14,12
LF:8
LH:8
end_of_record
TN:
SF:/workspace/src/StringDataSource.cpp
FNL:0,11,18
FNA:0,84,_ZN17CStringDataSource3GetERc
FNL:1,20,26
FNA:1,77,_ZN17CStringDataSource4PeekERc
FNL:2,28,40
FNA:2,21,_ZN17CStringDataSource4ReadERSt6vectorIcSaIcEEm
FNL:3,3,5
FNA:3,77,_ZN17CStringDataSourceC2ERKNSt7__cxx1112basic_stringIcSt11char_traitsIcESaIcEEE
FNL:4,7,9
FNA:4,14,_ZNK17CStringDataSource3EndEv
FNF:5
FNH:5
DA:3,77
DA:5,77
DA:7,14
DA:8,14
DA:11,84
DA:12,84
DA:13,63
DA:14,63
DA:15,63
DA:17,21
DA:20,77
DA:21,77
DA:22,63
DA:23,63
DA:25,14
DA:28,21
DA:29,21
DA:30,70
DA:32,63
DA:33,49
DA:36,14
DA:39,21
LF:22
LH:22
end_of_record
TN:
SF:/workspace/src/XMLReader.cpp
FNL:0,13,15
FNA:0,0,_ZN10CXMLReaderD2Ev
FNL:1,17,19
FNA:1,0,_ZNK10CXMLReader3EndEv
FNL:2,21,23
FNA:2,0,_ZN10CXMLReader10ReadEntityER10SXMLEntityb
FNL:3,9,11
FNA:3,0,_ZN10CXMLReaderC2ESt10shared_ptrI11CDataSourceE
FNF:4
FNH:0
DA:9,0
DA:11,0
DA:13,0
DA:15,0
DA:17,0
DA:21,0
LF:6
LH:0
end_of_record
TN:
SF:/workspace/src/svg.c
FNL:0,103,130
FNA:0,100,svg_rect
FNL:1,132,155
FNA:1,80,svg_line
FNL:2,158,169
FNA:2,40,svg_group_begin
FNL:3,171,174
FNA:3,20,svg_group_end
FNL:4,25,60
FNA:4,301,svg_create
FNL:5,62,70
FNA:5,280,svg_destroy
FNL:6,73,100
FNA:6,100,svg_circle
FNF:7
FNH:7
DA:25,301
DA:30,301
DA:31,301
DA:32,301
DA:33,301
DA:35,301
DA:36,21
DA:38,280
DA:39,20
DA:42,260
DA:43,0
DA:46,260
DA:48,260
DA:49,260
DA:52,260
DA:53,260
DA:54,260
DA:55,260
DA:56,260
DA:58,260
DA:62,280
DA:64,280
DA:65,260
DA:66,260
DA:67,260
DA:69,20
DA:73,100
DA:78,100
DA:79,20
DA:81,80
DA:82,20
DA:84,60
DA:85,20
DA:87,40
DA:88,20
DA:90,20
DA:91,20
DA:92,20
DA:93,20
DA:94,20
DA:95,20
DA:96,20
DA:97,20
DA:99,20
DA:103,100
DA:108,100
DA:109,20
DA:111,80
DA:112,20
DA:114,60
DA:115,20
DA:117,40
DA:118,20
DA:120,20
DA:121,20
DA:122,20
DA:123,20
DA:124,20
DA:125,20
DA:126,20
DA:127,20
DA:129,20
DA:132,80
DA:136,80
DA:137,20
DA:139,60
DA:140,20
DA:142,40
DA:143,20
DA:145,20
DA:146,20
DA:147,20
DA:148,20
DA:149,20
DA:150,20
DA:151,20
DA:152,20
DA:154,20
DA:158,40
DA:160,40
DA:161,20
DA:163,20
DA:164,20
DA:165,20
DA:166,20
DA:167,20
DA:168,20
DA:171,20
DA:173,20
LF:89
LH:88
end_of_record
